target datalayout = "e-m:e-p270:32:32-p271:32:32-p272:64:64-i64:64-i128:128-f80:128-n8:16:32:64-S128"
target triple = "x86_64-pc-linux-gnu"

@H5G_init_g = external global i8, align 1
@H5_libterm_g = external global i8, align 1
@.str.2 = private unnamed_addr constant [99 x i8] c"generated/home/dtcxzyw/WorkSpace/Projects/compilers/llvm-opt-benchmark/bench/hdf5/hdf5/src/H5Goh.c\00", align 1
@H5E_SYM_g = external global i64, align 8
@__func__.H5O__group_open = private unnamed_addr constant [16 x i8] c"H5O__group_open\00", align 1
@H5E_CANTOPENOBJ_g = external global i64, align 8
@.str.5 = private unnamed_addr constant [21 x i8] c"unable to open group\00", align 1
@H5E_CLOSEERROR_g = external global i64, align 8
@.str.6 = private unnamed_addr constant [24 x i8] c"unable to release group\00", align 1

; Function Attrs: nounwind uwtable
define internal ptr @H5O__group_open(ptr noundef %0, ptr noundef %1) #0 {
  %3 = alloca ptr, align 8
  %4 = alloca ptr, align 8
  %5 = alloca ptr, align 8
  %6 = alloca ptr, align 8
  %7 = alloca i8, align 1
  store ptr %0, ptr %3, align 8, !tbaa !23
  store ptr %1, ptr %4, align 8, !tbaa !3
  call void @llvm.lifetime.start.p0(i64 8, ptr %5) #4
  store ptr null, ptr %5, align 8, !tbaa !25
  call void @llvm.lifetime.start.p0(i64 8, ptr %6) #4
  store ptr null, ptr %6, align 8, !tbaa !3
  call void @llvm.lifetime.start.p0(i64 1, ptr %7) #4
  store i8 0, ptr %7, align 1, !tbaa !7
  %8 = load i8, ptr @H5G_init_g, align 1, !tbaa !7, !range !9, !noundef !10
  %9 = trunc i8 %8 to i1
  br i1 %9, label %14, label %10

10:                                               ; preds = %2
  %11 = load i8, ptr @H5_libterm_g, align 1, !tbaa !7, !range !9, !noundef !10
  %12 = trunc i8 %11 to i1
  %13 = xor i1 %12, true
  br label %14

14:                                               ; preds = %10, %2
  %15 = phi i1 [ true, %2 ], [ %13, %10 ]
  %16 = xor i1 %15, true
  %17 = xor i1 %16, true
  %18 = zext i1 %17 to i32
  %19 = sext i32 %18 to i64
  %20 = call i64 @llvm.expect.i64(i64 %19, i64 1)
  %21 = icmp ne i64 %20, 0
  br i1 %21, label %22, label %76

22:                                               ; preds = %14
  %23 = load ptr, ptr %4, align 8, !tbaa !3
  store i32 2, ptr %23, align 4, !tbaa !22
  %24 = load ptr, ptr %3, align 8, !tbaa !23
  %25 = call ptr @H5G_open(ptr noundef %24)
  store ptr %25, ptr %5, align 8, !tbaa !25
  %26 = icmp eq ptr null, %25
  br i1 %26, label %27, label %46

27:                                               ; preds = %22
  br label %28

28:                                               ; preds = %27
  br label %29

29:                                               ; preds = %28
  br label %30

30:                                               ; preds = %29
  %31 = load i64, ptr @H5E_SYM_g, align 8, !tbaa !11
  %32 = load i64, ptr @H5E_CANTOPENOBJ_g, align 8, !tbaa !11
  %33 = call i32 (ptr, ptr, i32, i64, i64, ptr, ...) @H5E_printf_stack(ptr noundef @.str.2, ptr noundef @__func__.H5O__group_open, i32 noundef 199, i64 noundef %31, i64 noundef %32, ptr noundef @.str.5)
  br label %34

34:                                               ; preds = %30
  br label %35

35:                                               ; preds = %34
  store i8 1, ptr %7, align 1, !tbaa !7
  %36 = load i8, ptr %7, align 1, !tbaa !7, !range !9, !noundef !10
  %37 = trunc i8 %36 to i1
  %38 = zext i1 %37 to i8
  store i8 %38, ptr %7, align 1, !tbaa !7
  br label %39

39:                                               ; preds = %35
  br label %40

40:                                               ; preds = %39
  br label %41

41:                                               ; preds = %40
  store ptr null, ptr %6, align 8, !tbaa !3
  br label %48

42:                                               ; No predecessors!
  br label %43

43:                                               ; preds = %42
  br label %44

44:                                               ; preds = %43
  br label %45

45:                                               ; preds = %44
  br label %46

46:                                               ; preds = %45, %22
  %47 = load ptr, ptr %5, align 8, !tbaa !25
  store ptr %47, ptr %6, align 8, !tbaa !3
  br label %48

48:                                               ; preds = %46, %41
  %49 = load ptr, ptr %6, align 8, !tbaa !3
  %50 = icmp eq ptr null, %49
  br i1 %50, label %51, label %75

51:                                               ; preds = %48
  %52 = load ptr, ptr %5, align 8, !tbaa !25
  %53 = icmp ne ptr %52, null
  br i1 %53, label %54, label %74

54:                                               ; preds = %51
  %55 = load ptr, ptr %5, align 8, !tbaa !25
  %56 = call i32 @H5G_close(ptr noundef %55)
  %57 = icmp slt i32 %56, 0
  br i1 %57, label %58, label %74

58:                                               ; preds = %54
  br label %59

59:                                               ; preds = %58
  br label %60

60:                                               ; preds = %59
  br label %61

61:                                               ; preds = %60
  %62 = load i64, ptr @H5E_SYM_g, align 8, !tbaa !11
  %63 = load i64, ptr @H5E_CLOSEERROR_g, align 8, !tbaa !11
  %64 = call i32 (ptr, ptr, i32, i64, i64, ptr, ...) @H5E_printf_stack(ptr noundef @.str.2, ptr noundef @__func__.H5O__group_open, i32 noundef 206, i64 noundef %62, i64 noundef %63, ptr noundef @.str.6)
  br label %65

65:                                               ; preds = %61
  br label %66

66:                                               ; preds = %65
  store i8 1, ptr %7, align 1, !tbaa !7
  %67 = load i8, ptr %7, align 1, !tbaa !7, !range !9, !noundef !10
  %68 = trunc i8 %67 to i1
  %69 = zext i1 %68 to i8
  store i8 %69, ptr %7, align 1, !tbaa !7
  br label %70

70:                                               ; preds = %66
  br label %71

71:                                               ; preds = %70
  store ptr null, ptr %6, align 8, !tbaa !3
  br label %72

72:                                               ; preds = %71
  br label %73

73:                                               ; preds = %72
  br label %74

74:                                               ; preds = %73, %54, %51
  br label %75

75:                                               ; preds = %74, %48
  br label %76

76:                                               ; preds = %75, %14
  %77 = load ptr, ptr %6, align 8, !tbaa !3
  call void @llvm.lifetime.end.p0(i64 1, ptr %7) #4
  call void @llvm.lifetime.end.p0(i64 8, ptr %6) #4
  call void @llvm.lifetime.end.p0(i64 8, ptr %5) #4
  ret ptr %77
}