; Function Attrs: nounwind uwtable
define internal ptr @H5O__group_open(ptr noundef %0, ptr noundef writeonly captures(none) %1) #0 {
  %3 = load i8, ptr @H5G_init_g, align 1, !tbaa !3, !range !7, !noundef !8
  %4 = trunc nuw i8 %3 to i1
  %5 = load i8, ptr @H5_libterm_g, align 1, !range !7
  %6 = trunc nuw i8 %5 to i1
  %7 = xor i1 %6, true
  %8 = select i1 %4, i1 true, i1 %7
  br i1 %8, label %9, label %16, !prof !9

9:                                                ; preds = %2
  store i32 2, ptr %1, align 4, !tbaa !18
  %10 = tail call ptr @H5G_open(ptr noundef %0) #3
  %11 = icmp eq ptr %10, null
  br i1 %11, label %12, label %16

12:                                               ; preds = %9
  %13 = load i64, ptr @H5E_SYM_g, align 8, !tbaa !10
  %14 = load i64, ptr @H5E_CANTOPENOBJ_g, align 8, !tbaa !10
  %15 = tail call i32 (ptr, ptr, i32, i64, i64, ptr, ...) @H5E_printf_stack(ptr noundef nonnull @.str.2, ptr noundef nonnull @__func__.H5O__group_open, i32 noundef 199, i64 noundef %13, i64 noundef %14, ptr noundef nonnull @.str.5) #3
  br label %16

16:                                               ; preds = %12, %9, %2
  %.0 = phi ptr [ null, %2 ], [ %10, %9 ], [ null, %12 ]
  ret ptr %.0
}